; Function Attrs: mustprogress uwtable
define internal void @_ZN4absl19str_format_internal12_GLOBAL__N_18StrPrintB5cxx11EPKcz(ptr noalias nonnull sret(%"class.std::__cxx11::basic_string") align 8 %agg.result, ptr nocapture noundef readonly %format, ...) unnamed_addr #3 personality ptr @__gxx_personality_v0 {
entry:
  %ap = alloca [1 x %struct.__va_list_tag], align 16
  call void @llvm.va_start(ptr nonnull %ap)
  call void @_ZNSt7__cxx1112basic_stringIcSt11char_traitsIcESaIcEEC1Ev(ptr noundef nonnull align 8 dereferenceable(32) %agg.result) #28
  invoke fastcc void @_ZN4absl19str_format_internal12_GLOBAL__N_110StrAppendVEPNSt7__cxx1112basic_stringIcSt11char_traitsIcESaIcEEEPKcP13__va_list_tag(ptr noundef nonnull %agg.result, ptr noundef %format, ptr noundef nonnull %ap)
          to label %invoke.cont unwind label %lpad

invoke.cont:                                      ; preds = %entry
  call void @llvm.va_end(ptr nonnull %ap)
  ret void

lpad:                                             ; preds = %entry
  %0 = landingpad { ptr, i32 }
          cleanup
  call void @_ZNSt7__cxx1112basic_stringIcSt11char_traitsIcESaIcEED1Ev(ptr noundef nonnull align 8 dereferenceable(32) %agg.result) #28
  resume { ptr, i32 } %0
}